target datalayout = "e-m:e-p270:32:32-p271:32:32-p272:64:64-i64:64-i128:128-f80:128-n8:16:32:64-S128"
target triple = "x86_64-pc-linux-gnu"

%class.G1HeapRegionType = type { i32 }
%class.LogTagSet = type { ptr, i64, [5 x i32], [4 x i8], %class.LogOutputList, %class.LogDecorators, ptr }
%class.LogOutputList = type <{ [6 x ptr], i32, [4 x i8] }>
%class.LogDecorators = type { i32 }
%class.BitMap = type { ptr, i64 }
%class.G1HeapRegion = type { ptr, ptr, ptr, ptr, ptr, ptr, i32, %class.G1HeapRegionType, ptr, i32, ptr, ptr, ptr, i64, i32, ptr, i32, i32, i64 }
%class.G1HeapRegionManager = type { ptr, ptr, %class.G1CommittedRegionMap, i32, [4 x i8], %class.G1HeapRegionTable, ptr, ptr, %class.G1FreeRegionList }
%class.G1CommittedRegionMap = type { ptr, %class.CHeapBitMap, %class.CHeapBitMap, i32, i32 }
%class.CHeapBitMap = type <{ %class.GrowableBitMap, i8, [7 x i8] }>
%class.GrowableBitMap = type { %class.BitMap }
%class.G1HeapRegionTable = type { %class.G1BiasedMappedArray.base, [4 x i8] }
%class.G1BiasedMappedArray.base = type { %class.G1BiasedMappedArrayBase.base }
%class.G1BiasedMappedArrayBase.base = type <{ ptr, ptr, ptr, i64, ptr, i64, i32 }>
%class.G1FreeRegionList = type { %class.G1HeapRegionSetBase.base, ptr, ptr, ptr, ptr }
%class.G1HeapRegionSetBase.base = type <{ ptr, ptr, i32, [4 x i8], ptr, i8 }>
%class.G1BiasedMappedArrayBase = type <{ ptr, ptr, ptr, i64, ptr, i64, i32, [4 x i8] }>

@_ZN16LogTagSetMappingILN6LogTag4typeE49ELS1_128ELS1_0ELS1_0ELS1_0ELS1_0EE7_tagsetE = linkonce_odr hidden global %class.LogTagSet zeroinitializer, comdat, align 8
@.str.52 = private unnamed_addr constant [43 x i8] c"G1HR %s(%s) [0x%016lx, 0x%016lx, 0x%016lx]\00", align 1
@.str.55 = private unnamed_addr constant [9 x i8] c"INACTIVE\00", align 1

; Function Attrs: mustprogress nounwind uwtable
define linkonce_odr hidden noundef zeroext i1 @_ZNK13LogOutputList8is_levelEN8LogLevel4typeE(ptr noundef nonnull align 8 dereferenceable(52) %0, i32 noundef %1) #1 comdat align 2 {
  %3 = alloca ptr, align 8
  %4 = alloca i32, align 4
  store ptr %0, ptr %3, align 8
  store i32 %1, ptr %4, align 4
  %5 = load ptr, ptr %3, align 8
  %6 = getelementptr inbounds %class.LogOutputList, ptr %5, i32 0, i32 0
  %7 = load i32, ptr %4, align 4
  %8 = zext i32 %7 to i64
  %9 = getelementptr inbounds [6 x ptr], ptr %6, i64 0, i64 %8
  %10 = load volatile ptr, ptr %9, align 8
  %11 = icmp ne ptr %10, null
  ret i1 %11
}

; Function Attrs: mustprogress nounwind uwtable
define linkonce_odr hidden noundef zeroext i1 @_ZNK9LogTagSet8is_levelEN8LogLevel4typeE(ptr noundef nonnull align 8 dereferenceable(112) %0, i32 noundef %1) #1 comdat align 2 {
  %3 = alloca ptr, align 8
  %4 = alloca i32, align 4
  store ptr %0, ptr %3, align 8
  store i32 %1, ptr %4, align 4
  %5 = load ptr, ptr %3, align 8
  %6 = getelementptr inbounds %class.LogTagSet, ptr %5, i32 0, i32 4
  %7 = load i32, ptr %4, align 4
  %8 = call noundef zeroext i1 @_ZNK13LogOutputList8is_levelEN8LogLevel4typeE(ptr noundef nonnull align 8 dereferenceable(52) %6, i32 noundef %7)
  ret i1 %8
}

; Function Attrs: mustprogress nounwind uwtable
define linkonce_odr hidden noundef nonnull align 8 dereferenceable(112) ptr @_ZN16LogTagSetMappingILN6LogTag4typeE49ELS1_128ELS1_0ELS1_0ELS1_0ELS1_0EE6tagsetEv() #1 comdat align 2 {
  ret ptr @_ZN16LogTagSetMappingILN6LogTag4typeE49ELS1_128ELS1_0ELS1_0ELS1_0ELS1_0EE7_tagsetE
}

; Function Attrs: mustprogress nounwind uwtable
define linkonce_odr hidden noundef ptr @_ZNK12G1HeapRegion3endEv(ptr noundef nonnull align 8 dereferenceable(136) %0) #1 comdat align 2 {
  %2 = alloca ptr, align 8
  store ptr %0, ptr %2, align 8
  %3 = load ptr, ptr %2, align 8
  %4 = getelementptr inbounds %class.G1HeapRegion, ptr %3, i32 0, i32 1
  %5 = load ptr, ptr %4, align 8
  ret ptr %5
}

; Function Attrs: mustprogress nounwind uwtable
define linkonce_odr hidden noundef ptr @_ZNK12G1HeapRegion3topEv(ptr noundef nonnull align 8 dereferenceable(136) %0) #1 comdat align 2 {
  %2 = alloca ptr, align 8
  store ptr %0, ptr %2, align 8
  %3 = load ptr, ptr %2, align 8
  %4 = getelementptr inbounds %class.G1HeapRegion, ptr %3, i32 0, i32 2
  %5 = load volatile ptr, ptr %4, align 8
  ret ptr %5
}

; Function Attrs: mustprogress nounwind uwtable
define linkonce_odr hidden noundef i64 @_Z3p2iPVKv(ptr noundef %0) #1 comdat {
  %2 = alloca ptr, align 8
  store ptr %0, ptr %2, align 8
  %3 = load ptr, ptr %2, align 8
  %4 = ptrtoint ptr %3 to i64
  ret i64 %4
}

; Function Attrs: mustprogress nounwind uwtable
define linkonce_odr hidden noundef ptr @_ZNK12G1HeapRegion6bottomEv(ptr noundef nonnull align 8 dereferenceable(136) %0) #1 comdat align 2 {
  %2 = alloca ptr, align 8
  store ptr %0, ptr %2, align 8
  %3 = load ptr, ptr %2, align 8
  %4 = getelementptr inbounds %class.G1HeapRegion, ptr %3, i32 0, i32 0
  %5 = load ptr, ptr %4, align 8
  ret ptr %5
}

; Function Attrs: mustprogress nounwind uwtable
define linkonce_odr hidden noundef ptr @_ZNK12G1HeapRegion12get_type_strEv(ptr noundef nonnull align 8 dereferenceable(136) %0) #1 comdat align 2 {
  %2 = alloca ptr, align 8
  store ptr %0, ptr %2, align 8
  %3 = load ptr, ptr %2, align 8
  %4 = getelementptr inbounds %class.G1HeapRegion, ptr %3, i32 0, i32 7
  %5 = call noundef ptr @_ZNK16G1HeapRegionType7get_strEv(ptr noundef nonnull align 4 dereferenceable(4) %4)
  ret ptr %5
}

; Function Attrs: mustprogress nounwind uwtable
define linkonce_odr hidden noundef zeroext i1 @_ZN7LogImplILN6LogTag4typeE49ELS1_128ELS1_0ELS1_0ELS1_0ELS1_0EE8is_levelEN8LogLevel4typeE(i32 noundef %0) #1 comdat align 2 {
  %2 = alloca i32, align 4
  store i32 %0, ptr %2, align 4
  %3 = call noundef nonnull align 8 dereferenceable(112) ptr @_ZN16LogTagSetMappingILN6LogTag4typeE49ELS1_128ELS1_0ELS1_0ELS1_0ELS1_0EE6tagsetEv()
  %4 = load i32, ptr %2, align 4
  %5 = call noundef zeroext i1 @_ZNK9LogTagSet8is_levelEN8LogLevel4typeE(ptr noundef nonnull align 8 dereferenceable(112) %3, i32 noundef %4)
  ret i1 %5
}

; Function Attrs: mustprogress nounwind uwtable
define linkonce_odr hidden noundef ptr @_ZNK19G1BiasedMappedArrayIP12G1HeapRegionE4baseEv(ptr noundef nonnull align 8 dereferenceable(52) %0) #1 comdat align 2 {
  %2 = alloca ptr, align 8
  store ptr %0, ptr %2, align 8
  %3 = load ptr, ptr %2, align 8
  %4 = getelementptr inbounds %class.G1BiasedMappedArrayBase, ptr %3, i32 0, i32 2
  %5 = load ptr, ptr %4, align 8
  ret ptr %5
}

; Function Attrs: mustprogress nounwind uwtable
define linkonce_odr hidden void @_ZNK23G1BiasedMappedArrayBase12verify_indexEm(ptr noundef nonnull align 8 dereferenceable(52) %0, i64 noundef %1) #1 comdat align 2 {
  %3 = alloca ptr, align 8
  %4 = alloca i64, align 8
  store ptr %0, ptr %3, align 8
  store i64 %1, ptr %4, align 8
  ret void
}

; Function Attrs: mustprogress nounwind uwtable
define linkonce_odr hidden void @_ZN19G1HeapRegionPrinter5printEPKcP12G1HeapRegion(ptr noundef %0, ptr noundef %1) #1 comdat align 2 {
  %3 = alloca ptr, align 8
  %4 = alloca ptr, align 8
  store ptr %0, ptr %3, align 8
  store ptr %1, ptr %4, align 8
  %5 = call noundef zeroext i1 @_ZN7LogImplILN6LogTag4typeE49ELS1_128ELS1_0ELS1_0ELS1_0ELS1_0EE8is_levelEN8LogLevel4typeE(i32 noundef 1)
  br i1 %5, label %7, label %6

6:                                                ; preds = %2
  br label %20

7:                                                ; preds = %2
  %8 = load ptr, ptr %3, align 8
  %9 = load ptr, ptr %4, align 8
  %10 = call noundef ptr @_ZNK12G1HeapRegion12get_type_strEv(ptr noundef nonnull align 8 dereferenceable(136) %9)
  %11 = load ptr, ptr %4, align 8
  %12 = call noundef ptr @_ZNK12G1HeapRegion6bottomEv(ptr noundef nonnull align 8 dereferenceable(136) %11)
  %13 = call noundef i64 @_Z3p2iPVKv(ptr noundef %12)
  %14 = load ptr, ptr %4, align 8
  %15 = call noundef ptr @_ZNK12G1HeapRegion3topEv(ptr noundef nonnull align 8 dereferenceable(136) %14)
  %16 = call noundef i64 @_Z3p2iPVKv(ptr noundef %15)
  %17 = load ptr, ptr %4, align 8
  %18 = call noundef ptr @_ZNK12G1HeapRegion3endEv(ptr noundef nonnull align 8 dereferenceable(136) %17)
  %19 = call noundef i64 @_Z3p2iPVKv(ptr noundef %18)
  call void (ptr, ...) @_ZN7LogImplILN6LogTag4typeE49ELS1_128ELS1_0ELS1_0ELS1_0ELS1_0EE5writeILN8LogLevel4typeE1EEEvPKcz(ptr noundef @.str.52, ptr noundef %8, ptr noundef %10, i64 noundef %13, i64 noundef %16, i64 noundef %19)
  br label %20

20:                                               ; preds = %7, %6
  ret void
}

; Function Attrs: mustprogress nounwind uwtable
define linkonce_odr hidden noundef ptr @_ZNK19G1BiasedMappedArrayIP12G1HeapRegionE12get_by_indexEm(ptr noundef nonnull align 8 dereferenceable(52) %0, i64 noundef %1) #1 comdat align 2 {
  %3 = alloca ptr, align 8
  %4 = alloca i64, align 8
  store ptr %0, ptr %3, align 8
  store i64 %1, ptr %4, align 8
  %5 = load ptr, ptr %3, align 8
  %6 = load i64, ptr %4, align 8
  call void @_ZNK23G1BiasedMappedArrayBase12verify_indexEm(ptr noundef nonnull align 8 dereferenceable(52) %5, i64 noundef %6)
  %7 = call noundef ptr @_ZNK19G1BiasedMappedArrayIP12G1HeapRegionE4baseEv(ptr noundef nonnull align 8 dereferenceable(52) %5)
  %8 = load i64, ptr %4, align 8
  %9 = getelementptr inbounds ptr, ptr %7, i64 %8
  %10 = load ptr, ptr %9, align 8
  ret ptr %10
}

; Function Attrs: mustprogress nounwind uwtable
define linkonce_odr hidden void @_ZN19G1HeapRegionPrinter8inactiveEP12G1HeapRegion(ptr noundef %0) #1 comdat align 2 {
  %2 = alloca ptr, align 8
  store ptr %0, ptr %2, align 8
  %3 = load ptr, ptr %2, align 8
  call void @_ZN19G1HeapRegionPrinter5printEPKcP12G1HeapRegion(ptr noundef @.str.55, ptr noundef %3)
  ret void
}

; Function Attrs: mustprogress nounwind uwtable
define linkonce_odr hidden void @_ZN12G1HeapRegion14set_node_indexEj(ptr noundef nonnull align 8 dereferenceable(136) %0, i32 noundef %1) #1 comdat align 2 {
  %3 = alloca ptr, align 8
  %4 = alloca i32, align 4
  store ptr %0, ptr %3, align 8
  store i32 %1, ptr %4, align 4
  %5 = load ptr, ptr %3, align 8
  %6 = load i32, ptr %4, align 4
  %7 = getelementptr inbounds %class.G1HeapRegion, ptr %5, i32 0, i32 17
  store i32 %6, ptr %7, align 4
  ret void
}

; Function Attrs: mustprogress nounwind uwtable
define linkonce_odr hidden noundef ptr @_ZNK19G1HeapRegionManager2atEj(ptr noundef nonnull align 8 dereferenceable(232) %0, i32 noundef %1) #1 comdat align 2 {
  %3 = alloca ptr, align 8
  %4 = alloca i32, align 4
  %5 = alloca ptr, align 8
  store ptr %0, ptr %3, align 8
  store i32 %1, ptr %4, align 4
  %6 = load ptr, ptr %3, align 8
  %7 = getelementptr inbounds %class.G1HeapRegionManager, ptr %6, i32 0, i32 5
  %8 = load i32, ptr %4, align 4
  %9 = zext i32 %8 to i64
  %10 = call noundef ptr @_ZNK19G1BiasedMappedArrayIP12G1HeapRegionE12get_by_indexEm(ptr noundef nonnull align 8 dereferenceable(52) %7, i64 noundef %9)
  store ptr %10, ptr %5, align 8
  %11 = load ptr, ptr %5, align 8
  ret ptr %11
}

; Function Attrs: mustprogress nounwind uwtable
define hidden void @_ZN19G1HeapRegionManager18deactivate_regionsEjj(ptr noundef nonnull align 8 dereferenceable(232) %0, i32 noundef %1, i32 noundef %2) #1 align 2 {
  %4 = alloca ptr, align 8
  %5 = alloca i32, align 4
  %6 = alloca i32, align 4
  %7 = alloca i32, align 4
  %8 = alloca i32, align 4
  %9 = alloca ptr, align 8
  store ptr %0, ptr %4, align 8
  store i32 %1, ptr %5, align 4
  store i32 %2, ptr %6, align 4
  %10 = load ptr, ptr %4, align 8
  %11 = load i32, ptr %5, align 4
  %12 = load i32, ptr %6, align 4
  %13 = add i32 %11, %12
  store i32 %13, ptr %7, align 4
  %14 = load i32, ptr %5, align 4
  store i32 %14, ptr %8, align 4
  br label %15

15:                                               ; preds = %24, %3
  %16 = load i32, ptr %8, align 4
  %17 = load i32, ptr %7, align 4
  %18 = icmp ult i32 %16, %17
  br i1 %18, label %19, label %27

19:                                               ; preds = %15
  %20 = load i32, ptr %8, align 4
  %21 = call noundef ptr @_ZNK19G1HeapRegionManager2atEj(ptr noundef nonnull align 8 dereferenceable(232) %10, i32 noundef %20)
  store ptr %21, ptr %9, align 8
  %22 = load ptr, ptr %9, align 8
  call void @_ZN12G1HeapRegion14set_node_indexEj(ptr noundef nonnull align 8 dereferenceable(136) %22, i32 noundef -1)
  %23 = load ptr, ptr %9, align 8
  call void @_ZN19G1HeapRegionPrinter8inactiveEP12G1HeapRegion(ptr noundef %23)
  br label %24

24:                                               ; preds = %19
  %25 = load i32, ptr %8, align 4
  %26 = add i32 %25, 1
  store i32 %26, ptr %8, align 4
  br label %15, !llvm.loop !14

27:                                               ; preds = %15
  %28 = getelementptr inbounds %class.G1HeapRegionManager, ptr %10, i32 0, i32 2
  %29 = load i32, ptr %5, align 4
  %30 = load i32, ptr %7, align 4
  call void @_ZN20G1CommittedRegionMap10deactivateEjj(ptr noundef nonnull align 8 dereferenceable(64) %28, i32 noundef %29, i32 noundef %30)
  ret void
}

; Function Attrs: mustprogress nounwind uwtable
define hidden void @_ZN19G1HeapRegionManager9shrink_atEjm(ptr noundef nonnull align 8 dereferenceable(232) %0, i32 noundef %1, i64 noundef %2) #1 align 2 {
  %4 = alloca ptr, align 8
  %5 = alloca i32, align 4
  %6 = alloca i64, align 8
  store ptr %0, ptr %4, align 8
  store i32 %1, ptr %5, align 4
  store i64 %2, ptr %6, align 8
  %7 = load ptr, ptr %4, align 8
  %8 = load i32, ptr %5, align 4
  %9 = load i64, ptr %6, align 8
  %10 = trunc i64 %9 to i32
  call void @_ZN19G1HeapRegionManager18deactivate_regionsEjj(ptr noundef nonnull align 8 dereferenceable(232) %7, i32 noundef %8, i32 noundef %10)
  ret void
}