; Function Attrs: mustprogress nounwind uwtable
define hidden void @_ZN19G1HeapRegionManager9shrink_atEjm(ptr noundef nonnull align 8 dereferenceable(232) %0, i32 noundef %1, i64 noundef %2) local_unnamed_addr #0 align 2 {
  %4 = trunc i64 %2 to i32
  %5 = add i32 %4, %1
  %6 = icmp ugt i32 %5, %1
  br i1 %6, label %.lr.ph.i, label %_ZN19G1HeapRegionManager18deactivate_regionsEjj.exit

.lr.ph.i:                                         ; preds = %3
  %7 = getelementptr inbounds i8, ptr %0, i64 104
  %8 = zext i32 %1 to i64
  br label %9

9:                                                ; preds = %_ZN19G1HeapRegionPrinter8inactiveEP12G1HeapRegion.exit.i, %.lr.ph.i
  %indvars.iv.i = phi i64 [ %8, %.lr.ph.i ], [ %indvars.iv.next.i, %_ZN19G1HeapRegionPrinter8inactiveEP12G1HeapRegion.exit.i ]
  %10 = load ptr, ptr %7, align 8
  %11 = getelementptr inbounds ptr, ptr %10, i64 %indvars.iv.i
  %12 = load ptr, ptr %11, align 8
  %13 = getelementptr inbounds i8, ptr %12, i64 124
  store i32 -1, ptr %13, align 4
  %14 = load volatile ptr, ptr getelementptr inbounds (i8, ptr @_ZN16LogTagSetMappingILN6LogTag4typeE49ELS1_128ELS1_0ELS1_0ELS1_0ELS1_0EE7_tagsetE, i64 48), align 8
  %.not.i.i.i = icmp eq ptr %14, null
  br i1 %.not.i.i.i, label %_ZN19G1HeapRegionPrinter8inactiveEP12G1HeapRegion.exit.i, label %15

15:                                               ; preds = %9
  %16 = getelementptr inbounds i8, ptr %12, i64 52
  %17 = tail call noundef ptr @_ZNK16G1HeapRegionType7get_strEv(ptr noundef nonnull align 4 dereferenceable(4) %16) #16
  %18 = load ptr, ptr %12, align 8
  %19 = ptrtoint ptr %18 to i64
  %20 = getelementptr inbounds i8, ptr %12, i64 16
  %21 = load volatile ptr, ptr %20, align 8
  %22 = ptrtoint ptr %21 to i64
  %23 = getelementptr inbounds i8, ptr %12, i64 8
  %24 = load ptr, ptr %23, align 8
  %25 = ptrtoint ptr %24 to i64
  tail call void (ptr, ...) @_ZN7LogImplILN6LogTag4typeE49ELS1_128ELS1_0ELS1_0ELS1_0ELS1_0EE5writeILN8LogLevel4typeE1EEEvPKcz(ptr noundef nonnull @.str.52, ptr noundef nonnull @.str.55, ptr noundef %17, i64 noundef %19, i64 noundef %22, i64 noundef %25)
  br label %_ZN19G1HeapRegionPrinter8inactiveEP12G1HeapRegion.exit.i

_ZN19G1HeapRegionPrinter8inactiveEP12G1HeapRegion.exit.i: ; preds = %15, %9
  %indvars.iv.next.i = add nuw nsw i64 %indvars.iv.i, 1
  %lftr.wideiv.i = trunc i64 %indvars.iv.next.i to i32
  %exitcond.not.i = icmp eq i32 %5, %lftr.wideiv.i
  br i1 %exitcond.not.i, label %_ZN19G1HeapRegionManager18deactivate_regionsEjj.exit, label %9, !llvm.loop !19

_ZN19G1HeapRegionManager18deactivate_regionsEjj.exit: ; preds = %_ZN19G1HeapRegionPrinter8inactiveEP12G1HeapRegion.exit.i, %3
  %26 = getelementptr inbounds i8, ptr %0, i64 16
  tail call void @_ZN20G1CommittedRegionMap10deactivateEjj(ptr noundef nonnull align 8 dereferenceable(64) %26, i32 noundef %1, i32 noundef %5) #16
  ret void
}